target datalayout = "e-m:e-p270:32:32-p271:32:32-p272:64:64-i64:64-i128:128-f80:128-n8:16:32:64-S128"
target triple = "x86_64-pc-linux-gnu"

%"class.TaskTerminator::DelayContext" = type { i32, i32, i32 }

@WorkStealingHardSpins = external global i64, align 8
@WorkStealingSpinToYieldRatio = external global i64, align 8

; Function Attrs: mustprogress nounwind uwtable
define hidden void @_ZN14TaskTerminator12DelayContext27reset_hard_spin_informationEv(ptr noundef nonnull align 4 dereferenceable(12) %0) #1 align 2 {
  %2 = alloca ptr, align 8
  store ptr %0, ptr %2, align 8
  %3 = load ptr, ptr %2, align 8
  %4 = getelementptr inbounds %"class.TaskTerminator::DelayContext", ptr %3, i32 0, i32 1
  store i32 0, ptr %4, align 4
  %5 = load i64, ptr @WorkStealingHardSpins, align 8
  %6 = load i64, ptr @WorkStealingSpinToYieldRatio, align 8
  %7 = lshr i64 %5, %6
  %8 = trunc i64 %7 to i32
  %9 = getelementptr inbounds %"class.TaskTerminator::DelayContext", ptr %3, i32 0, i32 2
  store i32 %8, ptr %9, align 4
  ret void
}