; Function Attrs: mustprogress nofree norecurse nosync nounwind willreturn memory(read, argmem: write, inaccessiblemem: none) uwtable
define hidden void @_ZN14TaskTerminator12DelayContext27reset_hard_spin_informationEv(ptr nocapture noundef nonnull writeonly align 4 dereferenceable(12) %0) local_unnamed_addr #0 align 2 {
  %2 = getelementptr inbounds i8, ptr %0, i64 4
  store i32 0, ptr %2, align 4
  %3 = load i64, ptr @WorkStealingHardSpins, align 8
  %4 = load i64, ptr @WorkStealingSpinToYieldRatio, align 8
  %5 = lshr i64 %3, %4
  %6 = trunc i64 %5 to i32
  %7 = getelementptr inbounds i8, ptr %0, i64 8
  store i32 %6, ptr %7, align 4
  ret void
}